target datalayout = "e-m:e-p270:32:32-p271:32:32-p272:64:64-i64:64-i128:128-f80:128-n8:16:32:64-S128"
target triple = "x86_64-pc-linux-gnu"

%struct.jpeg_compress_struct = type { ptr, ptr, ptr, ptr, i32, i32, ptr, i32, i32, i32, i32, double, i32, i32, i32, ptr, [4 x ptr], [4 x ptr], [4 x ptr], [16 x i8], [16 x i8], [16 x i8], i32, ptr, i32, i32, i32, i32, i32, i32, i32, i32, i32, i8, i8, i8, i16, i16, i32, i32, i32, i32, i32, i32, i32, [4 x ptr], i32, i32, i32, [10 x i32], i32, i32, i32, i32, ptr, ptr, ptr, ptr, ptr, ptr, ptr, ptr, ptr, ptr, i32 }
%struct._tga_source_struct = type { %struct.cjpeg_source_struct, ptr, ptr, ptr, i32, ptr, [4 x i8], i32, i32, i32, i32, ptr }
%struct.cjpeg_source_struct = type { ptr, ptr, ptr, ptr, ptr, ptr, ptr, i32, i32 }

@c5to8bits = internal constant [32 x i8] c"\00\08\10\19!)1:BJRZcks{\84\8C\94\9C\A5\AD\B5\BD\C5\CE\D6\DE\E6\EF\F7\FF", align 16

; Function Attrs: nounwind uwtable
define internal i32 @get_16bit_row(ptr noundef %0, ptr noundef %1) #0 {
  %3 = alloca ptr, align 8
  %4 = alloca ptr, align 8
  %5 = alloca ptr, align 8
  %6 = alloca i32, align 4
  %7 = alloca ptr, align 8
  %8 = alloca i32, align 4
  store ptr %0, ptr %3, align 8
  store ptr %1, ptr %4, align 8
  %9 = load ptr, ptr %4, align 8
  store ptr %9, ptr %5, align 8
  %10 = load ptr, ptr %5, align 8
  %11 = getelementptr inbounds %struct._tga_source_struct, ptr %10, i32 0, i32 0
  %12 = getelementptr inbounds %struct.cjpeg_source_struct, ptr %11, i32 0, i32 4
  %13 = load ptr, ptr %12, align 8
  %14 = getelementptr inbounds ptr, ptr %13, i64 0
  %15 = load ptr, ptr %14, align 8
  store ptr %15, ptr %7, align 8
  %16 = load ptr, ptr %3, align 8
  %17 = getelementptr inbounds %struct.jpeg_compress_struct, ptr %16, i32 0, i32 7
  %18 = load i32, ptr %17, align 8
  store i32 %18, ptr %8, align 4
  br label %19

19:                                               ; preds = %67, %2
  %20 = load i32, ptr %8, align 4
  %21 = icmp ugt i32 %20, 0
  br i1 %21, label %22, label %70

22:                                               ; preds = %19
  %23 = load ptr, ptr %5, align 8
  %24 = getelementptr inbounds %struct._tga_source_struct, ptr %23, i32 0, i32 5
  %25 = load ptr, ptr %24, align 8
  %26 = load ptr, ptr %5, align 8
  call void %25(ptr noundef %26)
  %27 = load ptr, ptr %5, align 8
  %28 = getelementptr inbounds %struct._tga_source_struct, ptr %27, i32 0, i32 6
  %29 = getelementptr inbounds [4 x i8], ptr %28, i64 0, i64 0
  %30 = load i8, ptr %29, align 8
  %31 = zext i8 %30 to i32
  store i32 %31, ptr %6, align 4
  %32 = load ptr, ptr %5, align 8
  %33 = getelementptr inbounds %struct._tga_source_struct, ptr %32, i32 0, i32 6
  %34 = getelementptr inbounds [4 x i8], ptr %33, i64 0, i64 1
  %35 = load i8, ptr %34, align 1
  %36 = zext i8 %35 to i32
  %37 = shl i32 %36, 8
  %38 = load i32, ptr %6, align 4
  %39 = add nsw i32 %38, %37
  store i32 %39, ptr %6, align 4
  %40 = load i32, ptr %6, align 4
  %41 = and i32 %40, 31
  %42 = sext i32 %41 to i64
  %43 = getelementptr inbounds [32 x i8], ptr @c5to8bits, i64 0, i64 %42
  %44 = load i8, ptr %43, align 1
  %45 = load ptr, ptr %7, align 8
  %46 = getelementptr inbounds i8, ptr %45, i64 2
  store i8 %44, ptr %46, align 1
  %47 = load i32, ptr %6, align 4
  %48 = ashr i32 %47, 5
  store i32 %48, ptr %6, align 4
  %49 = load i32, ptr %6, align 4
  %50 = and i32 %49, 31
  %51 = sext i32 %50 to i64
  %52 = getelementptr inbounds [32 x i8], ptr @c5to8bits, i64 0, i64 %51
  %53 = load i8, ptr %52, align 1
  %54 = load ptr, ptr %7, align 8
  %55 = getelementptr inbounds i8, ptr %54, i64 1
  store i8 %53, ptr %55, align 1
  %56 = load i32, ptr %6, align 4
  %57 = ashr i32 %56, 5
  store i32 %57, ptr %6, align 4
  %58 = load i32, ptr %6, align 4
  %59 = and i32 %58, 31
  %60 = sext i32 %59 to i64
  %61 = getelementptr inbounds [32 x i8], ptr @c5to8bits, i64 0, i64 %60
  %62 = load i8, ptr %61, align 1
  %63 = load ptr, ptr %7, align 8
  %64 = getelementptr inbounds i8, ptr %63, i64 0
  store i8 %62, ptr %64, align 1
  %65 = load ptr, ptr %7, align 8
  %66 = getelementptr inbounds i8, ptr %65, i64 3
  store ptr %66, ptr %7, align 8
  br label %67

67:                                               ; preds = %22
  %68 = load i32, ptr %8, align 4
  %69 = add i32 %68, -1
  store i32 %69, ptr %8, align 4
  br label %19, !llvm.loop !10

70:                                               ; preds = %19
  ret i32 1
}