; Function Attrs: nounwind uwtable
define internal noundef i32 @get_16bit_row(ptr nocapture noundef readonly %0, ptr noundef %1) #0 {
  %3 = getelementptr inbounds i8, ptr %0, i64 48
  %4 = load i32, ptr %3, align 8
  %.not19 = icmp eq i32 %4, 0
  br i1 %.not19, label %._crit_edge, label %.lr.ph

.lr.ph:                                           ; preds = %2
  %5 = getelementptr inbounds i8, ptr %1, i64 32
  %6 = load ptr, ptr %5, align 8
  %7 = load ptr, ptr %6, align 8
  %8 = getelementptr inbounds i8, ptr %1, i64 96
  %9 = getelementptr inbounds i8, ptr %1, i64 104
  %10 = getelementptr inbounds i8, ptr %1, i64 105
  br label %11

11:                                               ; preds = %.lr.ph, %11
  %.021 = phi i32 [ %4, %.lr.ph ], [ %36, %11 ]
  %.01820 = phi ptr [ %7, %.lr.ph ], [ %35, %11 ]
  %12 = load ptr, ptr %8, align 8
  tail call void %12(ptr noundef nonnull %1) #3
  %13 = load i8, ptr %9, align 8
  %14 = zext i8 %13 to i32
  %15 = load i8, ptr %10, align 1
  %16 = zext i8 %15 to i32
  %17 = shl nuw nsw i32 %16, 8
  %18 = or disjoint i32 %17, %14
  %19 = and i32 %14, 31
  %20 = zext nneg i32 %19 to i64
  %21 = getelementptr inbounds [32 x i8], ptr @c5to8bits, i64 0, i64 %20
  %22 = load i8, ptr %21, align 1
  %23 = getelementptr inbounds i8, ptr %.01820, i64 2
  store i8 %22, ptr %23, align 1
  %24 = lshr i32 %18, 5
  %25 = and i32 %24, 31
  %26 = zext nneg i32 %25 to i64
  %27 = getelementptr inbounds [32 x i8], ptr @c5to8bits, i64 0, i64 %26
  %28 = load i8, ptr %27, align 1
  %29 = getelementptr inbounds i8, ptr %.01820, i64 1
  store i8 %28, ptr %29, align 1
  %30 = lshr i32 %16, 2
  %31 = and i32 %30, 31
  %32 = zext nneg i32 %31 to i64
  %33 = getelementptr inbounds [32 x i8], ptr @c5to8bits, i64 0, i64 %32
  %34 = load i8, ptr %33, align 1
  store i8 %34, ptr %.01820, align 1
  %35 = getelementptr inbounds i8, ptr %.01820, i64 3
  %36 = add i32 %.021, -1
  %.not = icmp eq i32 %36, 0
  br i1 %.not, label %._crit_edge, label %11, !llvm.loop !11

._crit_edge:                                      ; preds = %11, %2
  ret i32 1
}